; Function Attrs: mustprogress nounwind uwtable
define dso_local void @_ZN4llvm7memprof9CallStackINS_6MDNodeEPKNS_9MDOperandEE17CallStackIteratorC2EPKS2_b(ptr noundef nonnull writeonly align 8 captures(none) dereferenceable(16) initializes((0, 8)) %0, ptr noundef %1, i1 noundef zeroext %2) unnamed_addr #0 align 2 {
  store ptr %1, ptr %0, align 8
  %.not = icmp eq ptr %1, null
  br i1 %.not, label %33, label %4

4:                                                ; preds = %3
  %5 = getelementptr inbounds i8, ptr %1, i64 -16
  %6 = load i64, ptr %5, align 8
  %7 = and i64 %6, 2
  %.not.i.i.i = icmp eq i64 %7, 0
  br i1 %2, label %8, label %21

8:                                                ; preds = %4
  br i1 %.not.i.i.i, label %13, label %9

9:                                                ; preds = %8
  %10 = getelementptr inbounds i8, ptr %1, i64 -32
  %11 = load ptr, ptr %10, align 8
  %12 = tail call noundef i64 @_ZNK4llvm15SmallVectorBaseIjE4sizeEv(ptr noundef nonnull align 8 dereferenceable(16) %10) #19
  br label %_ZNK4llvm6MDNode6op_endEv.exit

13:                                               ; preds = %8
  %14 = lshr i64 %6, 2
  %15 = and i64 %14, 15
  %16 = sub nsw i64 0, %15
  %17 = getelementptr inbounds %"class.llvm::MDOperand", ptr %5, i64 %16
  %18 = lshr i64 %6, 6
  %19 = and i64 %18, 15
  br label %_ZNK4llvm6MDNode6op_endEv.exit

_ZNK4llvm6MDNode6op_endEv.exit:                   ; preds = %9, %13
  %.sroa.3.0.i.i.i = phi i64 [ %19, %13 ], [ %12, %9 ]
  %.sroa.0.0.i.i.i = phi ptr [ %17, %13 ], [ %11, %9 ]
  %20 = getelementptr inbounds %"class.llvm::MDOperand", ptr %.sroa.0.0.i.i.i, i64 %.sroa.3.0.i.i.i
  br label %_ZNK4llvm6MDNode8op_beginEv.exit

21:                                               ; preds = %4
  br i1 %.not.i.i.i, label %26, label %22

22:                                               ; preds = %21
  %23 = getelementptr inbounds i8, ptr %1, i64 -32
  %24 = load ptr, ptr %23, align 8
  %25 = tail call noundef i64 @_ZNK4llvm15SmallVectorBaseIjE4sizeEv(ptr noundef nonnull align 8 dereferenceable(16) %23) #19
  br label %_ZNK4llvm6MDNode8op_beginEv.exit

26:                                               ; preds = %21
  %27 = lshr i64 %6, 2
  %28 = and i64 %27, 15
  %29 = sub nsw i64 0, %28
  %30 = getelementptr inbounds %"class.llvm::MDOperand", ptr %5, i64 %29
  br label %_ZNK4llvm6MDNode8op_beginEv.exit

_ZNK4llvm6MDNode8op_beginEv.exit:                 ; preds = %26, %22, %_ZNK4llvm6MDNode6op_endEv.exit
  %31 = phi ptr [ %20, %_ZNK4llvm6MDNode6op_endEv.exit ], [ %30, %26 ], [ %24, %22 ]
  %32 = getelementptr inbounds nuw i8, ptr %0, i64 8
  store ptr %31, ptr %32, align 8
  br label %33

33:                                               ; preds = %3, %_ZNK4llvm6MDNode8op_beginEv.exit
  ret void
}